target datalayout = "e-m:e-p270:32:32-p271:32:32-p272:64:64-i64:64-i128:128-f80:128-n8:16:32:64-S128"
target triple = "x86_64-pc-linux-gnu"

%struct.AVChannelLayout = type { i32, i32, %union.anon.1, ptr }
%union.anon.1 = type { i64 }
%struct.AVFilterContext = type { ptr, ptr, ptr, ptr, ptr, i32, ptr, ptr, i32, ptr, ptr, i32, i32, ptr, ptr, ptr, ptr, i32, ptr, i32, i32 }
%struct.ANullContext = type { ptr, %struct.AVChannelLayout, i32, i64, i32, i64 }
%struct.AVFrame = type { [8 x ptr], [8 x i32], ptr, i32, i32, i32, i32, i32, %struct.AVRational, i64, i64, %struct.AVRational, i32, ptr, i32, i32, [8 x ptr], ptr, i32, ptr, i32, i32, i32, i32, i32, i32, i32, i64, ptr, i32, ptr, ptr, i64, i64, i64, i64, ptr, %struct.AVChannelLayout, i64 }
%struct.AVRational = type { i32, i32 }

; Function Attrs: inlinehint nounwind uwtable
define internal void @ff_outlink_set_status(ptr noundef %0, i32 noundef %1, i64 noundef %2) #7 {
  %4 = alloca ptr, align 8
  %5 = alloca i32, align 4
  %6 = alloca i64, align 8
  store ptr %0, ptr %4, align 8, !tbaa !35
  store i32 %1, ptr %5, align 4, !tbaa !27
  store i64 %2, ptr %6, align 8, !tbaa !55
  %7 = load ptr, ptr %4, align 8, !tbaa !35
  %8 = load i32, ptr %5, align 4, !tbaa !27
  %9 = load i64, ptr %6, align 8, !tbaa !55
  call void @ff_avfilter_link_set_in_status(ptr noundef %7, i32 noundef %8, i64 noundef %9)
  ret void
}

; Function Attrs: nounwind uwtable
define internal i32 @activate(ptr noundef %0) #0 {
  %2 = alloca i32, align 4
  %3 = alloca ptr, align 8
  %4 = alloca ptr, align 8
  %5 = alloca ptr, align 8
  %6 = alloca i32, align 4
  %7 = alloca ptr, align 8
  store ptr %0, ptr %3, align 8, !tbaa !4
  call void @llvm.lifetime.start.p0(i64 8, ptr %4) #8
  %8 = load ptr, ptr %3, align 8, !tbaa !4
  %9 = getelementptr inbounds nuw %struct.AVFilterContext, ptr %8, i32 0, i32 9
  %10 = load ptr, ptr %9, align 8, !tbaa !12
  store ptr %10, ptr %4, align 8, !tbaa !24
  call void @llvm.lifetime.start.p0(i64 8, ptr %5) #8
  %11 = load ptr, ptr %3, align 8, !tbaa !4
  %12 = getelementptr inbounds nuw %struct.AVFilterContext, ptr %11, i32 0, i32 7
  %13 = load ptr, ptr %12, align 8, !tbaa !34
  %14 = getelementptr inbounds ptr, ptr %13, i64 0
  %15 = load ptr, ptr %14, align 8, !tbaa !35
  store ptr %15, ptr %5, align 8, !tbaa !35
  %16 = load ptr, ptr %4, align 8, !tbaa !24
  %17 = getelementptr inbounds nuw %struct.ANullContext, ptr %16, i32 0, i32 3
  %18 = load i64, ptr %17, align 8, !tbaa !37
  %19 = icmp sge i64 %18, 0
  br i1 %19, label %20, label %33

20:                                               ; preds = %1
  %21 = load ptr, ptr %4, align 8, !tbaa !24
  %22 = getelementptr inbounds nuw %struct.ANullContext, ptr %21, i32 0, i32 5
  %23 = load i64, ptr %22, align 8, !tbaa !38
  %24 = load ptr, ptr %4, align 8, !tbaa !24
  %25 = getelementptr inbounds nuw %struct.ANullContext, ptr %24, i32 0, i32 3
  %26 = load i64, ptr %25, align 8, !tbaa !37
  %27 = icmp sge i64 %23, %26
  br i1 %27, label %28, label %33

28:                                               ; preds = %20
  %29 = load ptr, ptr %5, align 8, !tbaa !35
  %30 = load ptr, ptr %4, align 8, !tbaa !24
  %31 = getelementptr inbounds nuw %struct.ANullContext, ptr %30, i32 0, i32 5
  %32 = load i64, ptr %31, align 8, !tbaa !38
  call void @ff_outlink_set_status(ptr noundef %29, i32 noundef -541478725, i64 noundef %32)
  store i32 0, ptr %2, align 4
  store i32 1, ptr %6, align 4
  br label %102

33:                                               ; preds = %20, %1
  %34 = load ptr, ptr %5, align 8, !tbaa !35
  %35 = call i32 @ff_outlink_frame_wanted(ptr noundef %34)
  %36 = icmp ne i32 %35, 0
  br i1 %36, label %37, label %101

37:                                               ; preds = %33
  call void @llvm.lifetime.start.p0(i64 8, ptr %7) #8
  %38 = load ptr, ptr %5, align 8, !tbaa !35
  %39 = load ptr, ptr %4, align 8, !tbaa !24
  %40 = getelementptr inbounds nuw %struct.ANullContext, ptr %39, i32 0, i32 3
  %41 = load i64, ptr %40, align 8, !tbaa !37
  %42 = icmp sge i64 %41, 0
  br i1 %42, label %43, label %71

43:                                               ; preds = %37
  %44 = load ptr, ptr %4, align 8, !tbaa !24
  %45 = getelementptr inbounds nuw %struct.ANullContext, ptr %44, i32 0, i32 4
  %46 = load i32, ptr %45, align 8, !tbaa !39
  %47 = sext i32 %46 to i64
  %48 = load ptr, ptr %4, align 8, !tbaa !24
  %49 = getelementptr inbounds nuw %struct.ANullContext, ptr %48, i32 0, i32 3
  %50 = load i64, ptr %49, align 8, !tbaa !37
  %51 = load ptr, ptr %4, align 8, !tbaa !24
  %52 = getelementptr inbounds nuw %struct.ANullContext, ptr %51, i32 0, i32 5
  %53 = load i64, ptr %52, align 8, !tbaa !38
  %54 = sub nsw i64 %50, %53
  %55 = icmp sgt i64 %47, %54
  br i1 %55, label %56, label %64

56:                                               ; preds = %43
  %57 = load ptr, ptr %4, align 8, !tbaa !24
  %58 = getelementptr inbounds nuw %struct.ANullContext, ptr %57, i32 0, i32 3
  %59 = load i64, ptr %58, align 8, !tbaa !37
  %60 = load ptr, ptr %4, align 8, !tbaa !24
  %61 = getelementptr inbounds nuw %struct.ANullContext, ptr %60, i32 0, i32 5
  %62 = load i64, ptr %61, align 8, !tbaa !38
  %63 = sub nsw i64 %59, %62
  br label %69

64:                                               ; preds = %43
  %65 = load ptr, ptr %4, align 8, !tbaa !24
  %66 = getelementptr inbounds nuw %struct.ANullContext, ptr %65, i32 0, i32 4
  %67 = load i32, ptr %66, align 8, !tbaa !39
  %68 = sext i32 %67 to i64
  br label %69

69:                                               ; preds = %64, %56
  %70 = phi i64 [ %63, %56 ], [ %68, %64 ]
  br label %76

71:                                               ; preds = %37
  %72 = load ptr, ptr %4, align 8, !tbaa !24
  %73 = getelementptr inbounds nuw %struct.ANullContext, ptr %72, i32 0, i32 4
  %74 = load i32, ptr %73, align 8, !tbaa !39
  %75 = sext i32 %74 to i64
  br label %76

76:                                               ; preds = %71, %69
  %77 = phi i64 [ %70, %69 ], [ %75, %71 ]
  %78 = trunc i64 %77 to i32
  %79 = call ptr @ff_get_audio_buffer(ptr noundef %38, i32 noundef %78)
  store ptr %79, ptr %7, align 8, !tbaa !40
  %80 = load ptr, ptr %7, align 8, !tbaa !40
  %81 = icmp ne ptr %80, null
  br i1 %81, label %83, label %82

82:                                               ; preds = %76
  store i32 -12, ptr %2, align 4
  store i32 1, ptr %6, align 4
  br label %100

83:                                               ; preds = %76
  %84 = load ptr, ptr %4, align 8, !tbaa !24
  %85 = getelementptr inbounds nuw %struct.ANullContext, ptr %84, i32 0, i32 5
  %86 = load i64, ptr %85, align 8, !tbaa !38
  %87 = load ptr, ptr %7, align 8, !tbaa !40
  %88 = getelementptr inbounds nuw %struct.AVFrame, ptr %87, i32 0, i32 9
  store i64 %86, ptr %88, align 8, !tbaa !42
  %89 = load ptr, ptr %7, align 8, !tbaa !40
  %90 = getelementptr inbounds nuw %struct.AVFrame, ptr %89, i32 0, i32 5
  %91 = load i32, ptr %90, align 8, !tbaa !49
  %92 = sext i32 %91 to i64
  %93 = load ptr, ptr %4, align 8, !tbaa !24
  %94 = getelementptr inbounds nuw %struct.ANullContext, ptr %93, i32 0, i32 5
  %95 = load i64, ptr %94, align 8, !tbaa !38
  %96 = add nsw i64 %95, %92
  store i64 %96, ptr %94, align 8, !tbaa !38
  %97 = load ptr, ptr %5, align 8, !tbaa !35
  %98 = load ptr, ptr %7, align 8, !tbaa !40
  %99 = call i32 @ff_filter_frame(ptr noundef %97, ptr noundef %98)
  store i32 %99, ptr %2, align 4
  store i32 1, ptr %6, align 4
  br label %100

100:                                              ; preds = %83, %82
  call void @llvm.lifetime.end.p0(i64 8, ptr %7) #8
  br label %102

101:                                              ; preds = %33
  store i32 -1497649742, ptr %2, align 4
  store i32 1, ptr %6, align 4
  br label %102

102:                                              ; preds = %101, %100, %28
  call void @llvm.lifetime.end.p0(i64 8, ptr %5) #8
  call void @llvm.lifetime.end.p0(i64 8, ptr %4) #8
  %103 = load i32, ptr %2, align 4
  ret i32 %103
}