; Function Attrs: nounwind uwtable
define internal i32 @activate(ptr noundef readonly captures(none) %0) #0 {
  %2 = getelementptr inbounds nuw i8, ptr %0, i64 72
  %3 = load ptr, ptr %2, align 8, !tbaa !4
  %4 = getelementptr inbounds nuw i8, ptr %0, i64 56
  %5 = load ptr, ptr %4, align 8, !tbaa !28
  %6 = load ptr, ptr %5, align 8, !tbaa !29
  %7 = getelementptr inbounds nuw i8, ptr %3, i64 40
  %8 = load i64, ptr %7, align 8, !tbaa !31
  %9 = icmp sgt i64 %8, -1
  br i1 %9, label %10, label %14

10:                                               ; preds = %1
  %11 = getelementptr inbounds nuw i8, ptr %3, i64 56
  %12 = load i64, ptr %11, align 8, !tbaa !32
  %.not = icmp slt i64 %12, %8
  br i1 %.not, label %14, label %13

13:                                               ; preds = %10
  tail call void @ff_avfilter_link_set_in_status(ptr noundef %6, i32 noundef -541478725, i64 noundef range(i64 0, -9223372036854775808) %12) #8
  br label %38

14:                                               ; preds = %10, %1
  %15 = tail call i32 @ff_outlink_frame_wanted(ptr noundef %6) #8
  %.not30 = icmp eq i32 %15, 0
  br i1 %.not30, label %38, label %16

16:                                               ; preds = %14
  %17 = load i64, ptr %7, align 8, !tbaa !31
  %18 = icmp sgt i64 %17, -1
  %19 = getelementptr inbounds nuw i8, ptr %3, i64 48
  %20 = load i32, ptr %19, align 8, !tbaa !33
  br i1 %18, label %21, label %26

21:                                               ; preds = %16
  %22 = sext i32 %20 to i64
  %23 = getelementptr inbounds nuw i8, ptr %3, i64 56
  %24 = load i64, ptr %23, align 8, !tbaa !32
  %25 = sub nsw i64 %17, %24
  %spec.select32 = tail call i64 @llvm.smin.i64(i64 %25, i64 %22)
  %spec.select = trunc i64 %spec.select32 to i32
  br label %26

26:                                               ; preds = %16, %21
  %27 = phi i32 [ %spec.select, %21 ], [ %20, %16 ]
  %28 = tail call ptr @ff_get_audio_buffer(ptr noundef %6, i32 noundef %27) #8
  %.not31 = icmp eq ptr %28, null
  br i1 %.not31, label %38, label %29

29:                                               ; preds = %26
  %30 = getelementptr inbounds nuw i8, ptr %3, i64 56
  %31 = load i64, ptr %30, align 8, !tbaa !32
  %32 = getelementptr inbounds nuw i8, ptr %28, i64 136
  store i64 %31, ptr %32, align 8, !tbaa !34
  %33 = getelementptr inbounds nuw i8, ptr %28, i64 112
  %34 = load i32, ptr %33, align 8, !tbaa !41
  %35 = sext i32 %34 to i64
  %36 = add nsw i64 %31, %35
  store i64 %36, ptr %30, align 8, !tbaa !32
  %37 = tail call i32 @ff_filter_frame(ptr noundef %6, ptr noundef nonnull %28) #8
  br label %38

38:                                               ; preds = %14, %29, %26, %13
  %.0 = phi i32 [ 0, %13 ], [ %37, %29 ], [ -12, %26 ], [ -1497649742, %14 ]
  ret i32 %.0
}